(dp1
S'image'
p2
(dp3
S'type'
p4
S'upload'
p5
sS'sortable'
p6
I2
sS'sql'
p7
S'CHAR(512)'
p8
ssS'id'
p9
(dp10
g4
S'id'
p11
sg6
I1
sg7
S'INTEGER PRIMARY KEY AUTOINCREMENT'
p12
ssS'biography'
p13
(dp14
g4
S'string'
p15
sg6
I4
sg7
S'CHAR(2096)'
p16
ssS'description'
p17
(dp18
g4
g15
sg6
I3
sg7
S'CHAR(2096)'
p19
ss.